(dp1
S'saved_by_info'
p2
(dp3
S'1422998262'
p4
Vmacieksk
p5
ssS'attached_data_files'
p6
(lp7
sS'tags'
p8
(dp9
Vmacieksk
p10
(lp11
I1
assS'id_number'
p12
I79
sS'pretty_print'
p13
I00
sS'running'
p14
I01
sS'owner'
p15
Vmacieksk
p16
sS'viewers'
p17
(lp18
sS'ratings'
p19
(lp20
sS'collaborators'
p21
(lp22
sS'name'
p23
Vseed-hit-cov-data-generator
p24
sS'last_change_pretty'
p25
V35 seconds
p26
sS'system'
p27
Vr
sS'filename'
p28
Vmacieksk/79
p29
sS'last_change'
p30
(Vmacieksk
p31
F1422998327.294754
tp32
sS'worksheet_that_was_published'
p33
(g10
I72
tp34
s.