(dp1
S'saved_by_info'
p2
(dp3
S'1422998262'
p4
Vmacieksk
p5
sS'1423242824'
p6
Vmacieksk
p7
sS'1423333325'
p8
Vmacieksk
p9
ssS'attached_data_files'
p10
(lp11
sS'tags'
p12
(dp13
Vmacieksk
p14
(lp15
I1
assS'id_number'
p16
I79
sS'pretty_print'
p17
I00
sS'running'
p18
I01
sS'owner'
p19
Vmacieksk
p20
sS'viewers'
p21
(lp22
sS'ratings'
p23
(lp24
sS'collaborators'
p25
(lp26
sS'name'
p27
Vseed-hit-cov-data-generator
p28
sS'last_change_pretty'
p29
V1 minute
p30
sS'system'
p31
Vr
sS'filename'
p32
Vmacieksk/79
p33
sS'last_change'
p34
(Vmacieksk
p35
F1423333610.4451339
tp36
sS'worksheet_that_was_published'
p37
(g14
I72
tp38
s.