(dp1
S'saved_by_info'
p2
(dp3
S'1422998262'
p4
Vmacieksk
p5
sS'1423242824'
p6
Vmacieksk
p7
ssS'attached_data_files'
p8
(lp9
sS'tags'
p10
(dp11
Vmacieksk
p12
(lp13
I1
assS'id_number'
p14
I79
sS'pretty_print'
p15
I00
sS'running'
p16
I01
sS'owner'
p17
Vmacieksk
p18
sS'viewers'
p19
(lp20
sS'ratings'
p21
(lp22
sS'collaborators'
p23
(lp24
sS'name'
p25
Vseed-hit-cov-data-generator
p26
sS'last_change_pretty'
p27
V11 seconds
p28
sS'system'
p29
Vr
sS'filename'
p30
Vmacieksk/79
p31
sS'last_change'
p32
(Vmacieksk
p33
F1423251104.0115421
tp34
sS'worksheet_that_was_published'
p35
(g12
I72
tp36
s.